target datalayout = "e-m:e-p270:32:32-p271:32:32-p272:64:64-i64:64-i128:128-f80:128-n8:16:32:64-S128"
target triple = "x86_64-pc-linux-gnu"

%struct.malloc_params = type { i64, i64, i64, i64, i64, i32 }
%struct.malloc_state = type { i32, i32, i64, i64, ptr, ptr, ptr, i64, i64, i64, [66 x ptr], [32 x ptr], i64, i64, i64, i32, i32, %struct.malloc_segment, ptr, i64 }
%struct.malloc_segment = type { ptr, i64, ptr, i32 }
%struct.malloc_chunk = type { i64, i64, ptr, ptr }
%struct.boost_cont_command_ret_impl = type { ptr, i32 }

@mparams = internal global %struct.malloc_params zeroinitializer, align 8
@_gm_ = internal global %struct.malloc_state zeroinitializer, align 8
@s_allocated_memory = internal global i64 0, align 8

; Function Attrs: nounwind uwtable
define internal i32 @spin_acquire_lock(ptr noundef %0) #0 {
  %2 = alloca ptr, align 8
  %3 = alloca i32, align 4
  store ptr %0, ptr %2, align 8, !tbaa !16
  call void @llvm.lifetime.start.p0(i64 4, ptr %3) #9
  store i32 0, ptr %3, align 4, !tbaa !14
  br label %4

4:                                                ; preds = %21, %1
  %5 = load ptr, ptr %2, align 8, !tbaa !16
  %6 = load volatile i32, ptr %5, align 4, !tbaa !14
  %7 = icmp ne i32 %6, 0
  br i1 %7, label %12, label %8

8:                                                ; preds = %4
  %9 = load ptr, ptr %2, align 8, !tbaa !16
  %10 = atomicrmw xchg ptr %9, i32 1 seq_cst, align 4
  %11 = icmp ne i32 %10, 0
  br label %12

12:                                               ; preds = %8, %4
  %13 = phi i1 [ true, %4 ], [ %11, %8 ]
  br i1 %13, label %14, label %22

14:                                               ; preds = %12
  %15 = load i32, ptr %3, align 4, !tbaa !14
  %16 = add nsw i32 %15, 1
  store i32 %16, ptr %3, align 4, !tbaa !14
  %17 = and i32 %16, 63
  %18 = icmp eq i32 %17, 0
  br i1 %18, label %19, label %21

19:                                               ; preds = %14
  %20 = call i32 @sched_yield() #9
  br label %21

21:                                               ; preds = %19, %14
  br label %4, !llvm.loop !34

22:                                               ; preds = %12
  call void @llvm.lifetime.end.p0(i64 4, ptr %3) #9
  ret i32 0
}

; Function Attrs: nounwind uwtable
define hidden { ptr, i32 } @boost_cont_allocation_command(i32 noundef %0, i64 noundef %1, i64 noundef %2, i64 noundef %3, ptr noundef %4, ptr noundef %5) #0 {
  %7 = alloca %struct.boost_cont_command_ret_impl, align 8
  %8 = alloca i32, align 4
  %9 = alloca i64, align 8
  %10 = alloca i64, align 8
  %11 = alloca i64, align 8
  %12 = alloca ptr, align 8
  %13 = alloca ptr, align 8
  %14 = alloca i32, align 4
  %15 = alloca ptr, align 8
  %16 = alloca ptr, align 8
  %17 = alloca i32, align 4
  %18 = alloca ptr, align 8
  %19 = alloca ptr, align 8
  store i32 %0, ptr %8, align 4, !tbaa !14
  store i64 %1, ptr %9, align 8, !tbaa !3
  store i64 %2, ptr %10, align 8, !tbaa !3
  store i64 %3, ptr %11, align 8, !tbaa !3
  store ptr %4, ptr %12, align 8, !tbaa !16
  store ptr %5, ptr %13, align 8, !tbaa !16
  call void @llvm.memset.p0.i64(ptr align 8 %7, i8 0, i64 16, i1 false)
  %20 = load i64, ptr @mparams, align 8, !tbaa !7
  %21 = icmp ne i64 %20, 0
  br i1 %21, label %24, label %22

22:                                               ; preds = %6
  %23 = call i32 @init_mparams()
  br label %24

24:                                               ; preds = %22, %6
  %25 = load i32, ptr %8, align 4, !tbaa !14
  %26 = and i32 %25, 72
  %27 = icmp ne i32 %26, 0
  br i1 %27, label %28, label %44

28:                                               ; preds = %24
  call void @llvm.lifetime.start.p0(i64 4, ptr %14) #9
  %29 = load ptr, ptr %13, align 8, !tbaa !16
  %30 = load i64, ptr %11, align 8, !tbaa !3
  %31 = load i64, ptr %10, align 8, !tbaa !3
  %32 = load ptr, ptr %12, align 8, !tbaa !16
  %33 = load i32, ptr %8, align 4, !tbaa !14
  %34 = and i32 %33, 8
  %35 = call i32 @boost_cont_shrink(ptr noundef %29, i64 noundef %30, i64 noundef %31, ptr noundef %32, i32 noundef %34)
  store i32 %35, ptr %14, align 4, !tbaa !14
  %36 = load i32, ptr %14, align 4, !tbaa !14
  %37 = icmp ne i32 %36, 0
  br i1 %37, label %38, label %40

38:                                               ; preds = %28
  %39 = load ptr, ptr %13, align 8, !tbaa !16
  br label %41

40:                                               ; preds = %28
  br label %41

41:                                               ; preds = %40, %38
  %42 = phi ptr [ %39, %38 ], [ null, %40 ]
  %43 = getelementptr inbounds nuw %struct.boost_cont_command_ret_impl, ptr %7, i32 0, i32 0
  store ptr %42, ptr %43, align 8, !tbaa !86
  call void @llvm.lifetime.end.p0(i64 4, ptr %14) #9
  br label %182

44:                                               ; preds = %24
  %45 = load ptr, ptr %12, align 8, !tbaa !16
  store i64 0, ptr %45, align 8, !tbaa !3
  %46 = load i64, ptr %10, align 8, !tbaa !3
  %47 = load i64, ptr %11, align 8, !tbaa !3
  %48 = icmp ugt i64 %46, %47
  br i1 %48, label %49, label %50

49:                                               ; preds = %44
  br label %182

50:                                               ; preds = %44
  call void @llvm.lifetime.start.p0(i64 8, ptr %15) #9
  store ptr @_gm_, ptr %15, align 8, !tbaa !16
  %51 = load ptr, ptr %15, align 8, !tbaa !16
  %52 = getelementptr inbounds nuw %struct.malloc_state, ptr %51, i32 0, i32 15
  %53 = load i32, ptr %52, align 8, !tbaa !10
  %54 = and i32 %53, 2
  %55 = icmp ne i32 %54, 0
  br i1 %55, label %56, label %67

56:                                               ; preds = %50
  %57 = load ptr, ptr %15, align 8, !tbaa !16
  %58 = getelementptr inbounds nuw %struct.malloc_state, ptr %57, i32 0, i32 16
  %59 = atomicrmw xchg ptr %58, i32 1 seq_cst, align 4
  %60 = icmp ne i32 %59, 0
  br i1 %60, label %61, label %66

61:                                               ; preds = %56
  %62 = load ptr, ptr %15, align 8, !tbaa !16
  %63 = getelementptr inbounds nuw %struct.malloc_state, ptr %62, i32 0, i32 16
  %64 = call i32 @spin_acquire_lock(ptr noundef %63)
  %65 = icmp ne i32 %64, 0
  br i1 %65, label %181, label %68

66:                                               ; preds = %56
  br i1 false, label %181, label %68

67:                                               ; preds = %50
  br i1 false, label %181, label %68

68:                                               ; preds = %67, %66, %61
  %69 = load ptr, ptr %13, align 8, !tbaa !16
  %70 = icmp ne ptr %69, null
  br i1 %70, label %71, label %94

71:                                               ; preds = %68
  %72 = load i32, ptr %8, align 4, !tbaa !14
  %73 = and i32 %72, 6
  %74 = icmp ne i32 %73, 0
  br i1 %74, label %75, label %94

75:                                               ; preds = %71
  call void @llvm.lifetime.start.p0(i64 8, ptr %16) #9
  %76 = load ptr, ptr %15, align 8, !tbaa !16
  %77 = load i32, ptr %8, align 4, !tbaa !14
  %78 = load ptr, ptr %13, align 8, !tbaa !16
  %79 = load i64, ptr %10, align 8, !tbaa !3
  %80 = load i64, ptr %11, align 8, !tbaa !3
  %81 = load ptr, ptr %12, align 8, !tbaa !16
  %82 = load i64, ptr %9, align 8, !tbaa !3
  %83 = call ptr @internal_grow_both_sides(ptr noundef %76, i32 noundef %77, ptr noundef %78, i64 noundef %79, i64 noundef %80, ptr noundef %81, i64 noundef %82, i32 noundef 1)
  store ptr %83, ptr %16, align 8, !tbaa !16
  %84 = load ptr, ptr %16, align 8, !tbaa !16
  %85 = icmp ne ptr %84, null
  br i1 %85, label %86, label %90

86:                                               ; preds = %75
  %87 = load ptr, ptr %16, align 8, !tbaa !16
  %88 = getelementptr inbounds nuw %struct.boost_cont_command_ret_impl, ptr %7, i32 0, i32 0
  store ptr %87, ptr %88, align 8, !tbaa !86
  %89 = getelementptr inbounds nuw %struct.boost_cont_command_ret_impl, ptr %7, i32 0, i32 1
  store i32 1, ptr %89, align 8, !tbaa !88
  store i32 2, ptr %17, align 4
  br label %91

90:                                               ; preds = %75
  store i32 0, ptr %17, align 4
  br label %91

91:                                               ; preds = %86, %90
  call void @llvm.lifetime.end.p0(i64 8, ptr %16) #9
  %92 = load i32, ptr %17, align 4
  switch i32 %92, label %184 [
    i32 0, label %93
    i32 2, label %171
  ]

93:                                               ; preds = %91
  br label %94

94:                                               ; preds = %93, %71, %68
  %95 = load i32, ptr %8, align 4, !tbaa !14
  %96 = and i32 %95, 1
  %97 = icmp ne i32 %96, 0
  br i1 %97, label %98, label %144

98:                                               ; preds = %94
  call void @llvm.lifetime.start.p0(i64 8, ptr %18) #9
  %99 = load ptr, ptr %15, align 8, !tbaa !16
  %100 = load i64, ptr %11, align 8, !tbaa !3
  %101 = call ptr @mspace_malloc_lockless(ptr noundef %99, i64 noundef %100)
  store ptr %101, ptr %18, align 8, !tbaa !16
  %102 = load ptr, ptr %18, align 8, !tbaa !16
  %103 = icmp ne ptr %102, null
  br i1 %103, label %108, label %104

104:                                              ; preds = %98
  %105 = load ptr, ptr %15, align 8, !tbaa !16
  %106 = load i64, ptr %10, align 8, !tbaa !3
  %107 = call ptr @mspace_malloc_lockless(ptr noundef %105, i64 noundef %106)
  store ptr %107, ptr %18, align 8, !tbaa !16
  br label %108

108:                                              ; preds = %104, %98
  %109 = load ptr, ptr %18, align 8, !tbaa !16
  %110 = icmp ne ptr %109, null
  br i1 %110, label %111, label %133

111:                                              ; preds = %108
  %112 = load ptr, ptr %18, align 8, !tbaa !16
  %113 = getelementptr inbounds i8, ptr %112, i64 -16
  %114 = getelementptr inbounds nuw %struct.malloc_chunk, ptr %113, i32 0, i32 1
  %115 = load i64, ptr %114, align 8, !tbaa !21
  %116 = and i64 %115, -8
  %117 = load i64, ptr @s_allocated_memory, align 8, !tbaa !3
  %118 = add i64 %117, %116
  store i64 %118, ptr @s_allocated_memory, align 8, !tbaa !3
  %119 = load ptr, ptr %18, align 8, !tbaa !16
  %120 = getelementptr inbounds i8, ptr %119, i64 -16
  %121 = getelementptr inbounds nuw %struct.malloc_chunk, ptr %120, i32 0, i32 1
  %122 = load i64, ptr %121, align 8, !tbaa !21
  %123 = and i64 %122, -8
  %124 = load ptr, ptr %18, align 8, !tbaa !16
  %125 = getelementptr inbounds i8, ptr %124, i64 -16
  %126 = getelementptr inbounds nuw %struct.malloc_chunk, ptr %125, i32 0, i32 1
  %127 = load i64, ptr %126, align 8, !tbaa !21
  %128 = and i64 %127, 3
  %129 = icmp eq i64 %128, 0
  %130 = select i1 %129, i64 16, i64 8
  %131 = sub i64 %123, %130
  %132 = load ptr, ptr %12, align 8, !tbaa !16
  store i64 %131, ptr %132, align 8, !tbaa !3
  br label %133

133:                                              ; preds = %111, %108
  %134 = load ptr, ptr %18, align 8, !tbaa !16
  %135 = getelementptr inbounds nuw %struct.boost_cont_command_ret_impl, ptr %7, i32 0, i32 0
  store ptr %134, ptr %135, align 8, !tbaa !86
  %136 = getelementptr inbounds nuw %struct.boost_cont_command_ret_impl, ptr %7, i32 0, i32 1
  store i32 0, ptr %136, align 8, !tbaa !88
  %137 = load ptr, ptr %18, align 8, !tbaa !16
  %138 = icmp ne ptr %137, null
  br i1 %138, label %139, label %140

139:                                              ; preds = %133
  store i32 2, ptr %17, align 4
  br label %141

140:                                              ; preds = %133
  store i32 0, ptr %17, align 4
  br label %141

141:                                              ; preds = %139, %140
  call void @llvm.lifetime.end.p0(i64 8, ptr %18) #9
  %142 = load i32, ptr %17, align 4
  switch i32 %142, label %184 [
    i32 0, label %143
    i32 2, label %171
  ]

143:                                              ; preds = %141
  br label %144

144:                                              ; preds = %143, %94
  %145 = load ptr, ptr %13, align 8, !tbaa !16
  %146 = icmp ne ptr %145, null
  br i1 %146, label %147, label %170

147:                                              ; preds = %144
  %148 = load i32, ptr %8, align 4, !tbaa !14
  %149 = and i32 %148, 6
  %150 = icmp ne i32 %149, 0
  br i1 %150, label %151, label %170

151:                                              ; preds = %147
  call void @llvm.lifetime.start.p0(i64 8, ptr %19) #9
  %152 = load ptr, ptr %15, align 8, !tbaa !16
  %153 = load i32, ptr %8, align 4, !tbaa !14
  %154 = load ptr, ptr %13, align 8, !tbaa !16
  %155 = load i64, ptr %10, align 8, !tbaa !3
  %156 = load i64, ptr %11, align 8, !tbaa !3
  %157 = load ptr, ptr %12, align 8, !tbaa !16
  %158 = load i64, ptr %9, align 8, !tbaa !3
  %159 = call ptr @internal_grow_both_sides(ptr noundef %152, i32 noundef %153, ptr noundef %154, i64 noundef %155, i64 noundef %156, ptr noundef %157, i64 noundef %158, i32 noundef 0)
  store ptr %159, ptr %19, align 8, !tbaa !16
  %160 = load ptr, ptr %19, align 8, !tbaa !16
  %161 = icmp ne ptr %160, null
  br i1 %161, label %162, label %166

162:                                              ; preds = %151
  %163 = load ptr, ptr %19, align 8, !tbaa !16
  %164 = getelementptr inbounds nuw %struct.boost_cont_command_ret_impl, ptr %7, i32 0, i32 0
  store ptr %163, ptr %164, align 8, !tbaa !86
  %165 = getelementptr inbounds nuw %struct.boost_cont_command_ret_impl, ptr %7, i32 0, i32 1
  store i32 1, ptr %165, align 8, !tbaa !88
  store i32 2, ptr %17, align 4
  br label %167

166:                                              ; preds = %151
  store i32 0, ptr %17, align 4
  br label %167

167:                                              ; preds = %162, %166
  call void @llvm.lifetime.end.p0(i64 8, ptr %19) #9
  %168 = load i32, ptr %17, align 4
  switch i32 %168, label %184 [
    i32 0, label %169
    i32 2, label %171
  ]

169:                                              ; preds = %167
  br label %170

170:                                              ; preds = %169, %147, %144
  br label %171

171:                                              ; preds = %170, %167, %141, %91
  %172 = load ptr, ptr %15, align 8, !tbaa !16
  %173 = getelementptr inbounds nuw %struct.malloc_state, ptr %172, i32 0, i32 15
  %174 = load i32, ptr %173, align 8, !tbaa !10
  %175 = and i32 %174, 2
  %176 = icmp ne i32 %175, 0
  br i1 %176, label %177, label %180

177:                                              ; preds = %171
  %178 = load ptr, ptr %15, align 8, !tbaa !16
  %179 = getelementptr inbounds nuw %struct.malloc_state, ptr %178, i32 0, i32 16
  store atomic i32 0, ptr %179 release, align 4
  br label %180

180:                                              ; preds = %177, %171
  br label %181

181:                                              ; preds = %180, %67, %66, %61
  call void @llvm.lifetime.end.p0(i64 8, ptr %15) #9
  br label %182

182:                                              ; preds = %181, %49, %41
  %183 = load { ptr, i32 }, ptr %7, align 8
  ret { ptr, i32 } %183

184:                                              ; preds = %91, %141, %167
  unreachable
}