; Function Attrs: nounwind uwtable
define hidden { ptr, i32 } @boost_cont_allocation_command(i32 noundef %0, i64 noundef %1, i64 noundef %2, i64 noundef %3, ptr nocapture noundef %4, ptr noundef %5) local_unnamed_addr #0 {
  %7 = load i64, ptr @mparams, align 8, !tbaa !3
  %.not = icmp eq i64 %7, 0
  br i1 %.not, label %8, label %9

8:                                                ; preds = %6
  tail call fastcc void @init_mparams()
  br label %9

9:                                                ; preds = %8, %6
  %10 = and i32 %0, 72
  %.not60 = icmp eq i32 %10, 0
  br i1 %.not60, label %15, label %11

11:                                               ; preds = %9
  %12 = and i32 %0, 8
  %13 = tail call i32 @boost_cont_shrink(ptr noundef %5, i64 noundef %3, i64 noundef %2, ptr noundef %4, i32 noundef %12)
  %.not72 = icmp eq i32 %13, 0
  %14 = select i1 %.not72, ptr null, ptr %5
  br label %53

15:                                               ; preds = %9
  store i64 0, ptr %4, align 8, !tbaa !36
  %16 = icmp ugt i64 %2, %3
  br i1 %16, label %53, label %17

17:                                               ; preds = %15
  %18 = load i32, ptr getelementptr inbounds nuw (i8, ptr @_gm_, i64 880), align 8, !tbaa !9
  %19 = and i32 %18, 2
  %.not61 = icmp eq i32 %19, 0
  br i1 %.not61, label %spin_acquire_lock.exit, label %20

20:                                               ; preds = %17
  %21 = atomicrmw xchg ptr getelementptr inbounds nuw (i8, ptr @_gm_, i64 884), i32 1 seq_cst, align 4
  %.not62 = icmp eq i32 %21, 0
  br i1 %.not62, label %spin_acquire_lock.exit, label %.preheader

.preheader:                                       ; preds = %20, %.preheader.backedge
  %.0.i = phi i32 [ %25, %.preheader.backedge ], [ 0, %20 ]
  %22 = load volatile i32, ptr getelementptr inbounds nuw (i8, ptr @_gm_, i64 884), align 4, !tbaa !13
  %.not.i = icmp eq i32 %22, 0
  br i1 %.not.i, label %23, label %.critedge.i

23:                                               ; preds = %.preheader
  %24 = atomicrmw xchg ptr getelementptr inbounds nuw (i8, ptr @_gm_, i64 884), i32 1 seq_cst, align 4
  %.not2.i = icmp eq i32 %24, 0
  br i1 %.not2.i, label %spin_acquire_lock.exit, label %.critedge.i

.critedge.i:                                      ; preds = %23, %.preheader
  %25 = add nuw nsw i32 %.0.i, 1
  %26 = and i32 %25, 63
  %27 = icmp eq i32 %26, 0
  br i1 %27, label %28, label %.preheader.backedge

28:                                               ; preds = %.critedge.i
  %29 = tail call i32 @sched_yield() #17
  br label %.preheader.backedge

.preheader.backedge:                              ; preds = %28, %.critedge.i
  br label %.preheader, !llvm.loop !14

spin_acquire_lock.exit:                           ; preds = %23, %17, %20
  %.not63 = icmp eq ptr %5, null
  %30 = and i32 %0, 6
  %.not64 = icmp eq i32 %30, 0
  %or.cond = or i1 %.not64, %.not63
  br i1 %or.cond, label %33, label %31

31:                                               ; preds = %spin_acquire_lock.exit
  %32 = tail call fastcc ptr @internal_grow_both_sides(i32 noundef %0, ptr noundef %5, i64 noundef %2, i64 noundef %3, ptr noundef nonnull %4, i64 noundef %1, i32 noundef 1)
  %.not65 = icmp eq ptr %32, null
  br i1 %.not65, label %33, label %49

33:                                               ; preds = %31, %spin_acquire_lock.exit
  %34 = and i32 %0, 1
  %.not66 = icmp eq i32 %34, 0
  br i1 %.not66, label %.critedge, label %35

35:                                               ; preds = %33
  %36 = tail call ptr @mspace_malloc_lockless(ptr noundef nonnull @_gm_, i64 noundef %3)
  %.not67 = icmp eq ptr %36, null
  br i1 %.not67, label %37, label %.thread

37:                                               ; preds = %35
  %38 = tail call ptr @mspace_malloc_lockless(ptr noundef nonnull @_gm_, i64 noundef %2)
  %.not68 = icmp eq ptr %38, null
  br i1 %.not68, label %.critedge, label %.thread

.thread:                                          ; preds = %35, %37
  %.079 = phi ptr [ %38, %37 ], [ %36, %35 ]
  %39 = getelementptr inbounds i8, ptr %.079, i64 -8
  %40 = load i64, ptr %39, align 8, !tbaa !23
  %41 = and i64 %40, -8
  %42 = load i64, ptr @s_allocated_memory, align 8, !tbaa !36
  %43 = add i64 %42, %41
  store i64 %43, ptr @s_allocated_memory, align 8, !tbaa !36
  %44 = and i64 %40, 3
  %45 = icmp eq i64 %44, 0
  %.neg = select i1 %45, i64 -16, i64 -8
  %46 = add i64 %.neg, %41
  store i64 %46, ptr %4, align 8, !tbaa !36
  br label %49

.critedge:                                        ; preds = %37, %33
  br i1 %or.cond, label %49, label %47

47:                                               ; preds = %.critedge
  %48 = tail call fastcc ptr @internal_grow_both_sides(i32 noundef %0, ptr noundef %5, i64 noundef %2, i64 noundef %3, ptr noundef nonnull %4, i64 noundef %1, i32 noundef 0)
  %.not70 = icmp ne ptr %48, null
  %.sroa.6.5. = zext i1 %.not70 to i32
  br label %49

49:                                               ; preds = %.thread, %31, %47, %.critedge
  %.sroa.6.4 = phi i32 [ 1, %31 ], [ 0, %.thread ], [ %.sroa.6.5., %47 ], [ 0, %.critedge ]
  %.sroa.0.4 = phi ptr [ %32, %31 ], [ %.079, %.thread ], [ %48, %47 ], [ null, %.critedge ]
  %50 = load i32, ptr getelementptr inbounds nuw (i8, ptr @_gm_, i64 880), align 8, !tbaa !9
  %51 = and i32 %50, 2
  %.not71 = icmp eq i32 %51, 0
  br i1 %.not71, label %53, label %52

52:                                               ; preds = %49
  store atomic i32 0, ptr getelementptr inbounds nuw (i8, ptr @_gm_, i64 884) release, align 4
  br label %53

53:                                               ; preds = %52, %49, %15, %11
  %.sroa.6.0 = phi i32 [ 0, %11 ], [ 0, %15 ], [ %.sroa.6.4, %49 ], [ %.sroa.6.4, %52 ]
  %.sroa.0.0 = phi ptr [ %14, %11 ], [ null, %15 ], [ %.sroa.0.4, %49 ], [ %.sroa.0.4, %52 ]
  %.fca.0.insert = insertvalue { ptr, i32 } poison, ptr %.sroa.0.0, 0
  %.fca.1.insert = insertvalue { ptr, i32 } %.fca.0.insert, i32 %.sroa.6.0, 1
  ret { ptr, i32 } %.fca.1.insert
}